target datalayout = "e-m:e-p270:32:32-p271:32:32-p272:64:64-i64:64-i128:128-f80:128-n8:16:32:64-S128"
target triple = "x86_64-unknown-linux-gnu"

%struct.QemuMutex = type { %union.pthread_mutex_t, i8 }
%union.pthread_mutex_t = type { %struct.__pthread_mutex_s }
%struct.__pthread_mutex_s = type { i32, i32, i32, i32, i32, i16, i16, %struct.__pthread_internal_list }
%struct.__pthread_internal_list = type { ptr, ptr }
%struct.RAMList = type { %struct.QemuMutex, ptr, %struct.anon.0, [3 x ptr], i32, %struct.anon.1 }
%struct.anon.0 = type { ptr }
%struct.anon.1 = type { ptr }
%struct.QemuEvent = type { i32, i8 }
%struct.RAMBlock = type { %struct.rcu_head, ptr, ptr, ptr, i64, i64, i64, ptr, i32, [256 x i8], %struct.anon.2, %struct.anon.3, i32, i64, i64, ptr, ptr, ptr, i8, i64 }
%struct.rcu_head = type { ptr, ptr }
%struct.anon.2 = type { ptr, ptr }
%struct.anon.3 = type { ptr }
%struct.RAMState = type { [2 x %struct.PageSearchStatus], i32, i64, ptr, i64, i32, i32, i64, i64, i64, i64, i64, i64, i8, i8, i64, i64, i64, %struct.QemuMutex, ptr, %struct.QemuMutex, %struct.anon.5, i32 }
%struct.PageSearchStatus = type { ptr, ptr, ptr, i64, i8, i8, i64, i64 }
%struct.anon.5 = type { ptr, ptr }
%struct.rcu_reader_data = type { i64, i8, i32, %struct.anon.12, %struct.NotifierList }
%struct.anon.12 = type { ptr, ptr }
%struct.NotifierList = type { %struct.anon.13 }
%struct.anon.13 = type { ptr }

@.str = private unnamed_addr constant [24 x i8] c"../qemu/migration/ram.c\00", align 1
@ram_list = external global %struct.RAMList, align 8
@ram_state = internal global ptr null, align 8
@__func__.colo_incoming_start_dirty_log = private unnamed_addr constant [30 x i8] c"colo_incoming_start_dirty_log\00", align 1
@.str.28 = private unnamed_addr constant [97 x i8] c"/home/dtcxzyw/WorkSpace/Projects/compilers/llvm-opt-benchmark/bench/qemu/qemu/include/qemu/rcu.h\00", align 1
@__func__.rcu_read_lock = private unnamed_addr constant [14 x i8] c"rcu_read_lock\00", align 1
@rcu_gp_ctr = external global i64, align 8
@.str.60 = private unnamed_addr constant [25 x i8] c"p_rcu_reader->depth != 0\00", align 1
@__PRETTY_FUNCTION__.rcu_read_unlock = private unnamed_addr constant [27 x i8] c"void rcu_read_unlock(void)\00", align 1
@__func__.rcu_read_unlock = private unnamed_addr constant [16 x i8] c"rcu_read_unlock\00", align 1
@rcu_gp_event = external global %struct.QemuEvent, align 4

; Function Attrs: nounwind sspstrong uwtable
define internal void @rcu_read_unlock() #0 {
entry:
  %p_rcu_reader = alloca ptr, align 8
  %.atomictmp = alloca i64, align 8
  %tmp = alloca i8, align 1
  %atomic-temp = alloca i8, align 1
  %.atomictmp23 = alloca i8, align 1
  %call = call ptr @get_ptr_rcu_reader()
  store ptr %call, ptr %p_rcu_reader, align 8
  %0 = load ptr, ptr %p_rcu_reader, align 8
  %depth = getelementptr inbounds %struct.rcu_reader_data, ptr %0, i32 0, i32 2
  %1 = load i32, ptr %depth, align 4
  %cmp = icmp ne i32 %1, 0
  br i1 %cmp, label %if.then, label %if.else

if.then:                                          ; preds = %entry
  br label %if.end

if.else:                                          ; preds = %entry
  call void @__assert_fail(ptr noundef @.str.60, ptr noundef @.str.28, i32 noundef 101, ptr noundef @__PRETTY_FUNCTION__.rcu_read_unlock) #14
  unreachable

if.end:                                           ; preds = %if.then
  %2 = load ptr, ptr %p_rcu_reader, align 8
  %depth1 = getelementptr inbounds %struct.rcu_reader_data, ptr %2, i32 0, i32 2
  %3 = load i32, ptr %depth1, align 4
  %dec = add i32 %3, -1
  store i32 %dec, ptr %depth1, align 4
  %cmp2 = icmp ugt i32 %dec, 0
  br i1 %cmp2, label %if.then3, label %if.end4

if.then3:                                         ; preds = %if.end
  br label %if.end25

if.end4:                                          ; preds = %if.end
  br label %do.body

do.body:                                          ; preds = %if.end4
  br label %while.cond

while.cond:                                       ; preds = %do.end, %do.body
  br i1 false, label %while.body, label %while.end

while.body:                                       ; preds = %while.cond
  br label %do.body5

do.body5:                                         ; preds = %while.body
  call void @g_assertion_message_expr(ptr noundef null, ptr noundef @.str.28, i32 noundef 111, ptr noundef @__func__.rcu_read_unlock, ptr noundef null) #12
  unreachable

do.end:                                           ; No predecessors!
  br label %while.cond

while.end:                                        ; preds = %while.cond
  %4 = load ptr, ptr %p_rcu_reader, align 8
  %ctr = getelementptr inbounds %struct.rcu_reader_data, ptr %4, i32 0, i32 0
  store i64 0, ptr %.atomictmp, align 8
  %5 = load i64, ptr %.atomictmp, align 8
  store atomic i64 %5, ptr %ctr release, align 8
  br label %do.end6

do.end6:                                          ; preds = %while.end
  call void asm sideeffect "", "~{memory},~{dirflag},~{fpsr},~{flags}"() #13, !srcloc !83
  fence seq_cst
  br label %while.cond7

while.cond7:                                      ; preds = %do.end10, %do.end6
  br i1 false, label %while.body8, label %while.end11

while.body8:                                      ; preds = %while.cond7
  br label %do.body9

do.body9:                                         ; preds = %while.body8
  call void @g_assertion_message_expr(ptr noundef null, ptr noundef @.str.28, i32 noundef 115, ptr noundef @__func__.rcu_read_unlock, ptr noundef null) #12
  unreachable

do.end10:                                         ; No predecessors!
  br label %while.cond7

while.end11:                                      ; preds = %while.cond7
  %6 = load ptr, ptr %p_rcu_reader, align 8
  %waiting = getelementptr inbounds %struct.rcu_reader_data, ptr %6, i32 0, i32 1
  %7 = load atomic i8, ptr %waiting monotonic, align 8
  store i8 %7, ptr %atomic-temp, align 1
  %8 = load i8, ptr %atomic-temp, align 1
  %tobool = trunc i8 %8 to i1
  %frombool = zext i1 %tobool to i8
  store i8 %frombool, ptr %tmp, align 1
  %9 = load i8, ptr %tmp, align 1
  %tobool12 = trunc i8 %9 to i1
  %lnot = xor i1 %tobool12, true
  %lnot13 = xor i1 %lnot, true
  %lnot.ext = zext i1 %lnot13 to i32
  %conv = sext i32 %lnot.ext to i64
  %tobool14 = icmp ne i64 %conv, 0
  br i1 %tobool14, label %if.then15, label %if.end25

if.then15:                                        ; preds = %while.end11
  br label %do.body16

do.body16:                                        ; preds = %if.then15
  br label %while.cond17

while.cond17:                                     ; preds = %do.end20, %do.body16
  br i1 false, label %while.body18, label %while.end21

while.body18:                                     ; preds = %while.cond17
  br label %do.body19

do.body19:                                        ; preds = %while.body18
  call void @g_assertion_message_expr(ptr noundef null, ptr noundef @.str.28, i32 noundef 116, ptr noundef @__func__.rcu_read_unlock, ptr noundef null) #12
  unreachable

do.end20:                                         ; No predecessors!
  br label %while.cond17

while.end21:                                      ; preds = %while.cond17
  %10 = load ptr, ptr %p_rcu_reader, align 8
  %waiting22 = getelementptr inbounds %struct.rcu_reader_data, ptr %10, i32 0, i32 1
  store i8 0, ptr %.atomictmp23, align 1
  %11 = load i8, ptr %.atomictmp23, align 1
  store atomic i8 %11, ptr %waiting22 monotonic, align 8
  br label %do.end24

do.end24:                                         ; preds = %while.end21
  call void @qemu_event_set(ptr noundef @rcu_gp_event)
  br label %if.end25

if.end25:                                         ; preds = %do.end24, %while.end11, %if.then3
  ret void
}

; Function Attrs: nounwind sspstrong uwtable
define internal void @glib_autoptr_clear_RCUReadAuto(ptr noundef %_ptr) #0 {
entry:
  %_ptr.addr = alloca ptr, align 8
  store ptr %_ptr, ptr %_ptr.addr, align 8
  %0 = load ptr, ptr %_ptr.addr, align 8
  %tobool = icmp ne ptr %0, null
  br i1 %tobool, label %if.then, label %if.end

if.then:                                          ; preds = %entry
  %1 = load ptr, ptr %_ptr.addr, align 8
  call void @rcu_read_auto_unlock(ptr noundef %1)
  br label %if.end

if.end:                                           ; preds = %if.then, %entry
  ret void
}

; Function Attrs: nounwind sspstrong uwtable
define internal void @rcu_read_lock() #0 {
entry:
  %p_rcu_reader = alloca ptr, align 8
  %ctr = alloca i32, align 4
  %tmp = alloca i64, align 8
  %atomic-temp = alloca i64, align 8
  %.atomictmp = alloca i64, align 8
  %call = call ptr @get_ptr_rcu_reader()
  store ptr %call, ptr %p_rcu_reader, align 8
  %0 = load ptr, ptr %p_rcu_reader, align 8
  %depth = getelementptr inbounds %struct.rcu_reader_data, ptr %0, i32 0, i32 2
  %1 = load i32, ptr %depth, align 4
  %inc = add i32 %1, 1
  store i32 %inc, ptr %depth, align 4
  %cmp = icmp ugt i32 %1, 0
  br i1 %cmp, label %if.then, label %if.end

if.then:                                          ; preds = %entry
  br label %return

if.end:                                           ; preds = %entry
  br label %while.cond

while.cond:                                       ; preds = %do.end, %if.end
  br i1 false, label %while.body, label %while.end

while.body:                                       ; preds = %while.cond
  br label %do.body

do.body:                                          ; preds = %while.body
  call void @g_assertion_message_expr(ptr noundef null, ptr noundef @.str.28, i32 noundef 87, ptr noundef @__func__.rcu_read_lock, ptr noundef null) #12
  unreachable

do.end:                                           ; No predecessors!
  br label %while.cond

while.end:                                        ; preds = %while.cond
  %2 = load atomic i64, ptr @rcu_gp_ctr monotonic, align 8
  store i64 %2, ptr %atomic-temp, align 8
  %3 = load i64, ptr %atomic-temp, align 8
  store i64 %3, ptr %tmp, align 8
  %4 = load i64, ptr %tmp, align 8
  %conv = trunc i64 %4 to i32
  store i32 %conv, ptr %ctr, align 4
  br label %do.body1

do.body1:                                         ; preds = %while.end
  br label %while.cond2

while.cond2:                                      ; preds = %do.end5, %do.body1
  br i1 false, label %while.body3, label %while.end6

while.body3:                                      ; preds = %while.cond2
  br label %do.body4

do.body4:                                         ; preds = %while.body3
  call void @g_assertion_message_expr(ptr noundef null, ptr noundef @.str.28, i32 noundef 88, ptr noundef @__func__.rcu_read_lock, ptr noundef null) #12
  unreachable

do.end5:                                          ; No predecessors!
  br label %while.cond2

while.end6:                                       ; preds = %while.cond2
  %5 = load ptr, ptr %p_rcu_reader, align 8
  %ctr7 = getelementptr inbounds %struct.rcu_reader_data, ptr %5, i32 0, i32 0
  %6 = load i32, ptr %ctr, align 4
  %conv8 = zext i32 %6 to i64
  store i64 %conv8, ptr %.atomictmp, align 8
  %7 = load i64, ptr %.atomictmp, align 8
  store atomic i64 %7, ptr %ctr7 monotonic, align 8
  br label %do.end9

do.end9:                                          ; preds = %while.end6
  call void asm sideeffect "", "~{memory},~{dirflag},~{fpsr},~{flags}"() #13, !srcloc !77
  fence seq_cst
  br label %return

return:                                           ; preds = %do.end9, %if.then
  ret void
}

; Function Attrs: nounwind sspstrong uwtable
define internal void @rcu_read_auto_unlock(ptr noundef %r) #0 {
entry:
  %r.addr = alloca ptr, align 8
  store ptr %r, ptr %r.addr, align 8
  call void @rcu_read_unlock()
  ret void
}

; Function Attrs: nounwind sspstrong uwtable
define internal void @bitmap_zero(ptr noundef %dst, i64 noundef %nbits) #0 {
entry:
  %dst.addr = alloca ptr, align 8
  %nbits.addr = alloca i64, align 8
  %len = alloca i64, align 8
  store ptr %dst, ptr %dst.addr, align 8
  store i64 %nbits, ptr %nbits.addr, align 8
  %0 = load i64, ptr %nbits.addr, align 8
  %cmp = icmp ule i64 %0, 64
  br i1 %cmp, label %if.then, label %if.else

if.then:                                          ; preds = %entry
  %1 = load ptr, ptr %dst.addr, align 8
  store i64 0, ptr %1, align 8
  br label %if.end

if.else:                                          ; preds = %entry
  %2 = load i64, ptr %nbits.addr, align 8
  %add = add i64 %2, 64
  %sub = sub i64 %add, 1
  %div = udiv i64 %sub, 64
  %mul = mul i64 %div, 8
  store i64 %mul, ptr %len, align 8
  %3 = load ptr, ptr %dst.addr, align 8
  %4 = load i64, ptr %len, align 8
  call void @llvm.memset.p0.i64(ptr align 8 %3, i8 0, i64 %4, i1 false)
  br label %if.end

if.end:                                           ; preds = %if.else, %if.then
  ret void
}

; Function Attrs: nounwind sspstrong uwtable
define dso_local zeroext i1 @migrate_ram_is_ignored(ptr noundef %block) #0 {
entry:
  %block.addr = alloca ptr, align 8
  store ptr %block, ptr %block.addr, align 8
  %0 = load ptr, ptr %block.addr, align 8
  %call = call zeroext i1 @qemu_ram_is_migratable(ptr noundef %0)
  br i1 %call, label %lor.rhs, label %lor.end

lor.rhs:                                          ; preds = %entry
  %call1 = call zeroext i1 @migrate_ignore_shared()
  br i1 %call1, label %land.lhs.true, label %land.end

land.lhs.true:                                    ; preds = %lor.rhs
  %1 = load ptr, ptr %block.addr, align 8
  %call2 = call zeroext i1 @qemu_ram_is_shared(ptr noundef %1)
  br i1 %call2, label %land.rhs, label %land.end

land.rhs:                                         ; preds = %land.lhs.true
  %2 = load ptr, ptr %block.addr, align 8
  %call3 = call zeroext i1 @qemu_ram_is_named_file(ptr noundef %2)
  br label %land.end

land.end:                                         ; preds = %land.rhs, %land.lhs.true, %lor.rhs
  %3 = phi i1 [ false, %land.lhs.true ], [ false, %lor.rhs ], [ %call3, %land.rhs ]
  br label %lor.end

lor.end:                                          ; preds = %land.end, %entry
  %4 = phi i1 [ true, %entry ], [ %3, %land.end ]
  ret i1 %4
}

; Function Attrs: nounwind sspstrong uwtable
define internal void @glib_autoptr_cleanup_RCUReadAuto(ptr noundef %_ptr) #0 {
entry:
  %_ptr.addr = alloca ptr, align 8
  store ptr %_ptr, ptr %_ptr.addr, align 8
  %0 = load ptr, ptr %_ptr.addr, align 8
  %1 = load ptr, ptr %0, align 8
  call void @glib_autoptr_clear_RCUReadAuto(ptr noundef %1)
  ret void
}

; Function Attrs: nounwind sspstrong uwtable
define internal ptr @rcu_read_auto_lock() #0 {
entry:
  call void @rcu_read_lock()
  %0 = inttoptr i64 1 to ptr
  ret ptr %0
}

; Function Attrs: nounwind sspstrong uwtable
define dso_local void @colo_incoming_start_dirty_log() #0 {
entry:
  %block = alloca ptr, align 8
  %_rcu_read_auto80 = alloca ptr, align 8
  %_val81 = alloca ptr, align 8
  %tmp = alloca ptr, align 8
  %_val82 = alloca ptr, align 8
  %tmp11 = alloca ptr, align 8
  store ptr null, ptr %block, align 8
  call void @qemu_mutex_lock_iothread_impl(ptr noundef @.str, i32 noundef 3456)
  call void @qemu_mutex_lock_ramlist()
  call void @memory_global_dirty_log_sync(i1 noundef zeroext false)
  %call = call ptr @rcu_read_auto_lock()
  store ptr %call, ptr %_rcu_read_auto80, align 8
  br label %for.cond

for.cond:                                         ; preds = %for.inc12, %entry
  %0 = load ptr, ptr %_rcu_read_auto80, align 8
  %tobool = icmp ne ptr %0, null
  br i1 %tobool, label %for.body, label %for.cond.cleanup

for.cond.cleanup:                                 ; preds = %for.cond
  call void @glib_autoptr_cleanup_RCUReadAuto(ptr noundef %_rcu_read_auto80)
  br label %for.end13

for.body:                                         ; preds = %for.cond
  br label %while.cond

while.cond:                                       ; preds = %do.end, %for.body
  br i1 false, label %while.body, label %while.end

while.body:                                       ; preds = %while.cond
  br label %do.body

do.body:                                          ; preds = %while.body
  call void @g_assertion_message_expr(ptr noundef null, ptr noundef @.str, i32 noundef 3461, ptr noundef @__func__.colo_incoming_start_dirty_log, ptr noundef null) #12
  unreachable

do.cond:                                          ; No predecessors!
  br label %do.end

do.end:                                           ; preds = %do.cond
  br label %while.cond

while.end:                                        ; preds = %while.cond
  %1 = getelementptr inbounds %struct.RAMList, ptr @ram_list, i32 0, i32 2
  %2 = load atomic i64, ptr %1 monotonic, align 8
  store i64 %2, ptr %_val81, align 8
  call void asm sideeffect "", "~{memory},~{dirflag},~{fpsr},~{flags}"() #13, !srcloc !56
  %3 = load ptr, ptr %_val81, align 8
  store ptr %3, ptr %tmp, align 8
  %4 = load ptr, ptr %tmp, align 8
  store ptr %4, ptr %block, align 8
  br label %for.cond1

for.cond1:                                        ; preds = %while.end10, %while.end
  %5 = load ptr, ptr %block, align 8
  %tobool2 = icmp ne ptr %5, null
  br i1 %tobool2, label %for.body3, label %for.end

for.body3:                                        ; preds = %for.cond1
  %6 = load ptr, ptr %block, align 8
  %call4 = call zeroext i1 @migrate_ram_is_ignored(ptr noundef %6)
  br i1 %call4, label %if.then, label %if.else

if.then:                                          ; preds = %for.body3
  br label %if.end

if.else:                                          ; preds = %for.body3
  %7 = load ptr, ptr @ram_state, align 8
  %8 = load ptr, ptr %block, align 8
  call void @ramblock_sync_dirty_bitmap(ptr noundef %7, ptr noundef %8)
  %9 = load ptr, ptr %block, align 8
  %bmap = getelementptr inbounds %struct.RAMBlock, ptr %9, i32 0, i32 15
  %10 = load ptr, ptr %bmap, align 8
  %11 = load ptr, ptr %block, align 8
  %max_length = getelementptr inbounds %struct.RAMBlock, ptr %11, i32 0, i32 6
  %12 = load i64, ptr %max_length, align 8
  %shr = lshr i64 %12, 12
  call void @bitmap_zero(ptr noundef %10, i64 noundef %shr)
  br label %if.end

if.end:                                           ; preds = %if.else, %if.then
  br label %for.inc

for.inc:                                          ; preds = %if.end
  br label %while.cond5

while.cond5:                                      ; preds = %do.end9, %for.inc
  br i1 false, label %while.body6, label %while.end10

while.body6:                                      ; preds = %while.cond5
  br label %do.body7

do.body7:                                         ; preds = %while.body6
  call void @g_assertion_message_expr(ptr noundef null, ptr noundef @.str, i32 noundef 3461, ptr noundef @__func__.colo_incoming_start_dirty_log, ptr noundef null) #12
  unreachable

do.cond8:                                         ; No predecessors!
  br label %do.end9

do.end9:                                          ; preds = %do.cond8
  br label %while.cond5

while.end10:                                      ; preds = %while.cond5
  %13 = load ptr, ptr %block, align 8
  %next = getelementptr inbounds %struct.RAMBlock, ptr %13, i32 0, i32 10
  %le_next = getelementptr inbounds %struct.anon.2, ptr %next, i32 0, i32 0
  %14 = load atomic i64, ptr %le_next monotonic, align 8
  store i64 %14, ptr %_val82, align 8
  call void asm sideeffect "", "~{memory},~{dirflag},~{fpsr},~{flags}"() #13, !srcloc !57
  %15 = load ptr, ptr %_val82, align 8
  store ptr %15, ptr %tmp11, align 8
  %16 = load ptr, ptr %tmp11, align 8
  store ptr %16, ptr %block, align 8
  br label %for.cond1, !llvm.loop !58

for.end:                                          ; preds = %for.cond1
  call void @memory_global_dirty_log_start(i32 noundef 1)
  br label %for.inc12

for.inc12:                                        ; preds = %for.end
  %17 = load ptr, ptr %_rcu_read_auto80, align 8
  call void @rcu_read_auto_unlock(ptr noundef %17)
  store ptr null, ptr %_rcu_read_auto80, align 8
  br label %for.cond, !llvm.loop !59

for.end13:                                        ; preds = %for.cond.cleanup
  %18 = load ptr, ptr @ram_state, align 8
  %migration_dirty_pages = getelementptr inbounds %struct.RAMState, ptr %18, i32 0, i32 17
  store i64 0, ptr %migration_dirty_pages, align 8
  call void @qemu_mutex_unlock_ramlist()
  call void @qemu_mutex_unlock_iothread()
  ret void
}