; Function Attrs: nounwind sspstrong uwtable
define dso_local void @colo_incoming_start_dirty_log() local_unnamed_addr #0 {
entry:
  tail call void @qemu_mutex_lock_iothread_impl(ptr noundef nonnull @.str, i32 noundef 3456) #18
  tail call void @qemu_mutex_lock_ramlist() #18
  tail call void @memory_global_dirty_log_sync(i1 noundef zeroext false) #18
  %call.i.i = tail call ptr @get_ptr_rcu_reader() #18
  %depth.i.i = getelementptr inbounds nuw i8, ptr %call.i.i, i64 12
  %0 = load i32, ptr %depth.i.i, align 4
  %inc.i.i = add i32 %0, 1
  store i32 %inc.i.i, ptr %depth.i.i, align 4
  %cmp.not.i.i = icmp eq i32 %0, 0
  br i1 %cmp.not.i.i, label %while.end.i.i, label %rcu_read_auto_lock.exit

while.end.i.i:                                    ; preds = %entry
  %1 = load atomic i64, ptr @rcu_gp_ctr monotonic, align 8
  %conv8.i.i = and i64 %1, 4294967295
  store atomic i64 %conv8.i.i, ptr %call.i.i monotonic, align 8
  tail call void asm sideeffect "", "~{memory},~{dirflag},~{fpsr},~{flags}"() #18, !srcloc !5
  fence seq_cst
  br label %rcu_read_auto_lock.exit

rcu_read_auto_lock.exit:                          ; preds = %entry, %while.end.i.i
  %2 = load atomic i64, ptr getelementptr inbounds nuw (i8, ptr @ram_list, i64 56) monotonic, align 8
  tail call void asm sideeffect "", "~{memory},~{dirflag},~{fpsr},~{flags}"() #18, !srcloc !61
  %tobool2.not12 = icmp eq i64 %2, 0
  br i1 %tobool2.not12, label %for.end, label %for.body3

for.body3:                                        ; preds = %rcu_read_auto_lock.exit, %while.end10
  %block.013.in = phi i64 [ %7, %while.end10 ], [ %2, %rcu_read_auto_lock.exit ]
  %block.013 = inttoptr i64 %block.013.in to ptr
  %call.i = tail call zeroext i1 @qemu_ram_is_migratable(ptr noundef nonnull %block.013) #18
  br i1 %call.i, label %lor.rhs.i, label %while.end10

lor.rhs.i:                                        ; preds = %for.body3
  %call1.i = tail call zeroext i1 @migrate_ignore_shared() #18
  br i1 %call1.i, label %land.lhs.true.i, label %if.else

land.lhs.true.i:                                  ; preds = %lor.rhs.i
  %call2.i = tail call zeroext i1 @qemu_ram_is_shared(ptr noundef nonnull %block.013) #18
  br i1 %call2.i, label %migrate_ram_is_ignored.exit, label %if.else

migrate_ram_is_ignored.exit:                      ; preds = %land.lhs.true.i
  %call3.i = tail call zeroext i1 @qemu_ram_is_named_file(ptr noundef nonnull %block.013) #18
  br i1 %call3.i, label %while.end10, label %if.else

if.else:                                          ; preds = %lor.rhs.i, %land.lhs.true.i, %migrate_ram_is_ignored.exit
  %3 = load ptr, ptr @ram_state, align 8
  tail call fastcc void @ramblock_sync_dirty_bitmap(ptr noundef %3, ptr noundef %block.013)
  %bmap = getelementptr inbounds nuw i8, ptr %block.013, i64 384
  %4 = load ptr, ptr %bmap, align 8
  %max_length = getelementptr inbounds nuw i8, ptr %block.013, i64 56
  %5 = load i64, ptr %max_length, align 8
  %cmp.i = icmp ult i64 %5, 266240
  br i1 %cmp.i, label %if.then.i, label %if.else.i

if.then.i:                                        ; preds = %if.else
  store i64 0, ptr %4, align 8
  br label %while.end10

if.else.i:                                        ; preds = %if.else
  %shr = lshr i64 %5, 12
  %sub.i = add nuw nsw i64 %shr, 63
  %6 = lshr i64 %sub.i, 3
  %mul.i = and i64 %6, 1125899906842616
  tail call void @llvm.memset.p0.i64(ptr align 8 %4, i8 0, i64 %mul.i, i1 false)
  br label %while.end10

while.end10:                                      ; preds = %for.body3, %if.else.i, %if.then.i, %migrate_ram_is_ignored.exit
  %next = getelementptr inbounds nuw i8, ptr %block.013, i64 336
  %7 = load atomic i64, ptr %next monotonic, align 8
  tail call void asm sideeffect "", "~{memory},~{dirflag},~{fpsr},~{flags}"() #18, !srcloc !62
  %tobool2.not = icmp eq i64 %7, 0
  br i1 %tobool2.not, label %for.end, label %for.body3, !llvm.loop !63

for.end:                                          ; preds = %while.end10, %rcu_read_auto_lock.exit
  tail call void @memory_global_dirty_log_start(i32 noundef 1) #18
  %call.i.i6 = tail call ptr @get_ptr_rcu_reader() #18
  %depth.i.i7 = getelementptr inbounds nuw i8, ptr %call.i.i6, i64 12
  %8 = load i32, ptr %depth.i.i7, align 4
  %cmp.not.i.i8 = icmp eq i32 %8, 0
  br i1 %cmp.not.i.i8, label %if.else.i.i, label %if.end.i.i

if.else.i.i:                                      ; preds = %for.end
  tail call void @__assert_fail(ptr noundef nonnull @.str.60, ptr noundef nonnull @.str.28, i32 noundef 101, ptr noundef nonnull @__PRETTY_FUNCTION__.rcu_read_unlock) #19
  unreachable

if.end.i.i:                                       ; preds = %for.end
  %dec.i.i = add i32 %8, -1
  store i32 %dec.i.i, ptr %depth.i.i7, align 4
  %cmp2.not.i.i = icmp eq i32 %dec.i.i, 0
  br i1 %cmp2.not.i.i, label %while.end.i.i9, label %glib_autoptr_cleanup_RCUReadAuto.exit

while.end.i.i9:                                   ; preds = %if.end.i.i
  store atomic i64 0, ptr %call.i.i6 release, align 8
  tail call void asm sideeffect "", "~{memory},~{dirflag},~{fpsr},~{flags}"() #18, !srcloc !10
  fence seq_cst
  %waiting.i.i = getelementptr inbounds nuw i8, ptr %call.i.i6, i64 8
  %9 = load atomic i8, ptr %waiting.i.i monotonic, align 8
  %tobool.i.i = trunc i8 %9 to i1
  br i1 %tobool.i.i, label %while.end21.i.i, label %glib_autoptr_cleanup_RCUReadAuto.exit

while.end21.i.i:                                  ; preds = %while.end.i.i9
  store atomic i8 0, ptr %waiting.i.i monotonic, align 8
  tail call void @qemu_event_set(ptr noundef nonnull @rcu_gp_event) #18
  br label %glib_autoptr_cleanup_RCUReadAuto.exit

glib_autoptr_cleanup_RCUReadAuto.exit:            ; preds = %while.end21.i.i, %while.end.i.i9, %if.end.i.i
  %10 = load ptr, ptr @ram_state, align 8
  %migration_dirty_pages = getelementptr inbounds nuw i8, ptr %10, i64 224
  store i64 0, ptr %migration_dirty_pages, align 8
  tail call void @qemu_mutex_unlock_ramlist() #18
  tail call void @qemu_mutex_unlock_iothread() #18
  ret void
}